; Function Attrs: nounwind uwtable
define ptr @Acec_ManDecla(ptr noundef %0, i32 noundef %1, i32 noundef %2) local_unnamed_addr #0 {
  %4 = alloca %struct.timespec, align 8
  %5 = alloca %struct.timespec, align 8
  %6 = alloca ptr, align 8
  call void @llvm.lifetime.start.p0(i64 16, ptr nonnull %5) #19
  %7 = call i32 @clock_gettime(i32 noundef 1, ptr noundef nonnull %5) #19
  %8 = icmp slt i32 %7, 0
  br i1 %8, label %Abc_Clock.exit, label %9

9:                                                ; preds = %3
  %10 = load i64, ptr %5, align 8, !tbaa !63
  %.neg16 = mul i64 %10, -1000000
  %11 = getelementptr inbounds nuw i8, ptr %5, i64 8
  %12 = load i64, ptr %11, align 8, !tbaa !65
  %.neg = sdiv i64 %12, -1000
  %.neg17 = add i64 %.neg, %.neg16
  br label %Abc_Clock.exit

Abc_Clock.exit:                                   ; preds = %3, %9
  %.0.i.neg = phi i64 [ %.neg17, %9 ], [ 1, %3 ]
  call void @llvm.lifetime.end.p0(i64 16, ptr nonnull %5) #19
  %.not = icmp eq i32 %1, 0
  br i1 %.not, label %.thread, label %14

.thread:                                          ; preds = %Abc_Clock.exit
  call void @llvm.lifetime.start.p0(i64 8, ptr nonnull %6) #19
  %13 = call ptr @Acec_DeriveBox(ptr noundef %0, ptr noundef null, i32 noundef 0, i32 noundef 0, i32 noundef %2) #19
  store ptr %13, ptr %6, align 8, !tbaa !79
  br label %Vec_BitFreeP.exit

14:                                               ; preds = %Abc_Clock.exit
  %15 = call ptr @Acec_BoothFindPPG(ptr noundef %0) #19
  call void @llvm.lifetime.start.p0(i64 8, ptr nonnull %6) #19
  %16 = call ptr @Acec_DeriveBox(ptr noundef %0, ptr noundef %15, i32 noundef 0, i32 noundef 0, i32 noundef %2) #19
  store ptr %16, ptr %6, align 8, !tbaa !79
  %17 = icmp eq ptr %15, null
  br i1 %17, label %Vec_BitFreeP.exit, label %18

18:                                               ; preds = %14
  %19 = getelementptr inbounds nuw i8, ptr %15, i64 8
  %20 = load ptr, ptr %19, align 8, !tbaa !81
  %.not.i = icmp eq ptr %20, null
  br i1 %.not.i, label %21, label %.thread.i

.thread.i:                                        ; preds = %18
  call void @free(ptr noundef nonnull %20) #19
  br label %21

21:                                               ; preds = %.thread.i, %18
  call void @free(ptr noundef nonnull %15) #19
  br label %Vec_BitFreeP.exit

Vec_BitFreeP.exit:                                ; preds = %.thread, %14, %21
  %22 = phi ptr [ %13, %.thread ], [ %16, %14 ], [ %16, %21 ]
  %23 = icmp eq ptr %22, null
  br i1 %23, label %24, label %26

24:                                               ; preds = %Vec_BitFreeP.exit
  %puts = call i32 @puts(ptr nonnull dereferenceable(1) @str.4)
  %25 = call ptr @Gia_ManDup(ptr noundef %0) #19
  br label %44

26:                                               ; preds = %Vec_BitFreeP.exit
  %27 = call ptr @Acec_RewriteTop(ptr noundef %0, ptr noundef nonnull %22)
  call void @Acec_BoxFreeP(ptr noundef nonnull %6) #19
  %28 = call ptr @Acec_RewriteReplace(ptr noundef %0, ptr noundef %27)
  %29 = getelementptr inbounds nuw i8, ptr %27, i64 8
  %30 = load ptr, ptr %29, align 8, !tbaa !3
  %.not.i12 = icmp eq ptr %30, null
  br i1 %.not.i12, label %Vec_IntFree.exit, label %31

31:                                               ; preds = %26
  call void @free(ptr noundef nonnull %30) #19
  br label %Vec_IntFree.exit

Vec_IntFree.exit:                                 ; preds = %26, %31
  call void @free(ptr noundef nonnull %27) #19
  call void @llvm.lifetime.start.p0(i64 16, ptr nonnull %4) #19
  %32 = call i32 @clock_gettime(i32 noundef 1, ptr noundef nonnull %4) #19
  %33 = icmp slt i32 %32, 0
  br i1 %33, label %Abc_Clock.exit14, label %34

34:                                               ; preds = %Vec_IntFree.exit
  %35 = load i64, ptr %4, align 8, !tbaa !63
  %36 = mul nsw i64 %35, 1000000
  %37 = getelementptr inbounds nuw i8, ptr %4, i64 8
  %38 = load i64, ptr %37, align 8, !tbaa !65
  %39 = sdiv i64 %38, 1000
  %40 = add nsw i64 %39, %36
  br label %Abc_Clock.exit14

Abc_Clock.exit14:                                 ; preds = %Vec_IntFree.exit, %34
  %.0.i13 = phi i64 [ %40, %34 ], [ -1, %Vec_IntFree.exit ]
  call void @llvm.lifetime.end.p0(i64 16, ptr nonnull %4) #19
  %41 = add i64 %.0.i13, %.0.i.neg
  call void (i32, ptr, ...) @Abc_Print(i32 poison, ptr noundef nonnull @.str.19, ptr noundef nonnull @.str.11)
  %42 = sitofp i64 %41 to double
  %43 = fdiv double %42, 1.000000e+06
  call void (i32, ptr, ...) @Abc_Print(i32 poison, ptr noundef nonnull @.str.20, double noundef %43)
  br label %44

44:                                               ; preds = %Abc_Clock.exit14, %24
  %.0 = phi ptr [ %25, %24 ], [ %28, %Abc_Clock.exit14 ]
  call void @llvm.lifetime.end.p0(i64 8, ptr nonnull %6) #19
  ret ptr %.0
}